target datalayout = "e-m:e-p270:32:32-p271:32:32-p272:64:64-i64:64-i128:128-f80:128-n8:16:32:64-S128"
target triple = "x86_64-pc-linux-gnu"

%struct.Qureg = type { i32, i32, i32, i64, i64, i32, i32, %struct.ComplexArray, %struct.ComplexArray, %struct.ComplexArray, ptr, ptr, ptr, ptr, ptr, ptr }
%struct.ComplexArray = type { ptr, ptr }

@__func__.initClassicalState = private unnamed_addr constant [19 x i8] c"initClassicalState\00", align 1

; Function Attrs: nounwind uwtable
define void @initClassicalState(ptr noundef byval(%struct.Qureg) align 8 %0, i64 noundef %1) #0 {
  %3 = alloca i64, align 8
  store i64 %1, ptr %3, align 8, !tbaa !22
  %4 = load i64, ptr %3, align 8, !tbaa !22
  call void @validateStateIndex(ptr noundef byval(%struct.Qureg) align 8 %0, i64 noundef %4, ptr noundef @__func__.initClassicalState)
  %5 = getelementptr inbounds nuw %struct.Qureg, ptr %0, i32 0, i32 0
  %6 = load i32, ptr %5, align 8, !tbaa !13
  %7 = icmp ne i32 %6, 0
  br i1 %7, label %8, label %10

8:                                                ; preds = %2
  %9 = load i64, ptr %3, align 8, !tbaa !22
  call void @densmatr_initClassicalState(ptr noundef byval(%struct.Qureg) align 8 %0, i64 noundef %9)
  br label %12

10:                                               ; preds = %2
  %11 = load i64, ptr %3, align 8, !tbaa !22
  call void @statevec_initClassicalState(ptr noundef byval(%struct.Qureg) align 8 %0, i64 noundef %11)
  br label %12

12:                                               ; preds = %10, %8
  %13 = load i64, ptr %3, align 8, !tbaa !22
  call void @qasm_recordInitClassical(ptr noundef byval(%struct.Qureg) align 8 %0, i64 noundef %13)
  ret void
}