; Function Attrs: nounwind uwtable
define void @initClassicalState(ptr noundef readonly byval(%struct.Qureg) align 8 captures(none) %0, i64 noundef %1) local_unnamed_addr #0 {
  tail call void @validateStateIndex(ptr noundef nonnull byval(%struct.Qureg) align 8 %0, i64 noundef %1, ptr noundef nonnull @__func__.initClassicalState) #17
  %3 = load i32, ptr %0, align 8, !tbaa !12
  %.not = icmp eq i32 %3, 0
  br i1 %.not, label %5, label %4

4:                                                ; preds = %2
  tail call void @densmatr_initClassicalState(ptr noundef nonnull byval(%struct.Qureg) align 8 %0, i64 noundef %1) #17
  br label %6

5:                                                ; preds = %2
  tail call void @statevec_initClassicalState(ptr noundef nonnull byval(%struct.Qureg) align 8 %0, i64 noundef %1) #17
  br label %6

6:                                                ; preds = %5, %4
  tail call void @qasm_recordInitClassical(ptr noundef nonnull byval(%struct.Qureg) align 8 %0, i64 noundef %1) #17
  ret void
}